; Function Attrs: mustprogress ssp uwtable
define void @_ZN6open3d4core17DynamicSizeVectorC2ERKS1_(ptr noundef nonnull align 8 dereferenceable(80) %0, ptr noundef nonnull align 8 dereferenceable(80) %1) unnamed_addr #0 align 2 personality ptr @__gxx_personality_v0 {
  %3 = getelementptr inbounds nuw i8, ptr %0, i64 16
  store ptr %3, ptr %0, align 8, !tbaa !11
  %4 = getelementptr inbounds nuw i8, ptr %0, i64 8
  store i32 0, ptr %4, align 8, !tbaa !15
  %5 = getelementptr inbounds nuw i8, ptr %0, i64 12
  store i32 4, ptr %5, align 4, !tbaa !14
  %6 = getelementptr inbounds nuw i8, ptr %1, i64 8
  %7 = load i32, ptr %6, align 8, !tbaa !15
  %.not.i.i = icmp eq i32 %7, 0
  br i1 %.not.i.i, label %_ZN6open3d4core11SmallVectorINS_7utility8optionalIlEELj4EEC2ERKS5_.exit, label %8

8:                                                ; preds = %2
  %9 = invoke noundef nonnull align 8 dereferenceable(16) ptr @_ZN6open3d4core15SmallVectorImplINS_7utility8optionalIlEEEaSERKS5_(ptr noundef nonnull align 8 dereferenceable(80) %0, ptr noundef nonnull align 8 dereferenceable(80) %1)
          to label %_ZN6open3d4core11SmallVectorINS_7utility8optionalIlEELj4EEC2ERKS5_.exit unwind label %10

10:                                               ; preds = %8
  %11 = landingpad { ptr, i32 }
          cleanup
  %12 = load ptr, ptr %0, align 8, !tbaa !11
  %13 = icmp eq ptr %12, %3
  br i1 %13, label %_ZN6open3d4core15SmallVectorImplINS_7utility8optionalIlEEED2Ev.exit.i, label %14

14:                                               ; preds = %10
  tail call void @free(ptr noundef %12) #29
  br label %_ZN6open3d4core15SmallVectorImplINS_7utility8optionalIlEEED2Ev.exit.i

_ZN6open3d4core15SmallVectorImplINS_7utility8optionalIlEEED2Ev.exit.i: ; preds = %14, %10
  resume { ptr, i32 } %11

_ZN6open3d4core11SmallVectorINS_7utility8optionalIlEELj4EEC2ERKS5_.exit: ; preds = %2, %8
  ret void
}